target datalayout = "e-m:e-p270:32:32-p271:32:32-p272:64:64-i64:64-i128:128-f80:128-n8:16:32:64-S128"
target triple = "x86_64-pc-linux-gnu"

%struct.XLogRecordBuffer = type { i64, i64, ptr }
%struct.LogicalDecodingContext = type { ptr, ptr, ptr, ptr, ptr, i8, %struct.OutputPluginCallbacks, %struct.OutputPluginOptions, ptr, ptr, ptr, ptr, ptr, ptr, ptr, i8, i8, i8, i8, i8, i64, i32, i8, i8 }
%struct.OutputPluginCallbacks = type { ptr, ptr, ptr, ptr, ptr, ptr, ptr, ptr, ptr, ptr, ptr, ptr, ptr, ptr, ptr, ptr, ptr, ptr, ptr, ptr, ptr }
%struct.OutputPluginOptions = type { i32, i8 }
%struct.XLogReaderState = type { %struct.XLogReaderRoutine, i64, ptr, i64, i64, i64, i64, i64, i64, i64, i64, ptr, ptr, i64, i8, ptr, ptr, ptr, ptr, ptr, i32, %struct.WALSegmentContext, %struct.WALOpenSegment, i32, i64, i32, i64, i32, i64, i32, ptr, i32, ptr, i8, i8 }
%struct.XLogReaderRoutine = type { ptr, ptr, ptr }
%struct.WALSegmentContext = type { [1024 x i8], i32 }
%struct.WALOpenSegment = type { i32, i64, i32 }
%struct.DecodedXLogRecord = type { i64, i8, ptr, i64, i64, %struct.XLogRecord, i16, i32, ptr, i32, i32, [0 x %struct.DecodedBkpBlock] }
%struct.XLogRecord = type { i32, i32, i64, i8, i8, i32 }
%struct.DecodedBkpBlock = type { i8, %struct.RelFileLocator, i32, i32, i32, i8, i8, i8, ptr, i16, i16, i16, i8, i8, ptr, i16, i16 }
%struct.RelFileLocator = type { i32, i32, i32 }
%struct.ReplicationSlot = type { i8, i8, i32, i8, i8, i32, i32, %struct.ReplicationSlotPersistentData, %struct.LWLock, %struct.ConditionVariable, i32, i64, i64, i64, i64, i64 }
%struct.ReplicationSlotPersistentData = type { %struct.nameData, i32, i32, i32, i32, i64, i32, i64, i64, i8, %struct.nameData, i8, i8 }
%struct.nameData = type { [64 x i8] }
%struct.LWLock = type { i16, %struct.pg_atomic_uint32, %struct.proclist_head }
%struct.pg_atomic_uint32 = type { i32 }
%struct.proclist_head = type { i32, i32 }
%struct.ConditionVariable = type { i8, %struct.proclist_head }
%struct.ReorderBufferChange = type { i64, i32, ptr, i16, %union.anon, %struct.dlist_node }
%union.anon = type { %struct.anon }
%struct.anon = type { %struct.RelFileLocator, i8, ptr, ptr }
%struct.dlist_node = type { ptr, ptr }
%struct.xl_heap_truncate = type { i32, i32, i8, [0 x i32] }
%struct.anon.0 = type { i64, i8, i8, ptr }

; Function Attrs: inlinehint nounwind uwtable
define internal zeroext i1 @FilterByOrigin(ptr noundef %0, i16 noundef zeroext %1) #3 {
  %3 = alloca i1, align 1
  %4 = alloca ptr, align 8
  %5 = alloca i16, align 2
  store ptr %0, ptr %4, align 8
  store i16 %1, ptr %5, align 2
  %6 = load ptr, ptr %4, align 8
  %7 = getelementptr inbounds nuw %struct.LogicalDecodingContext, ptr %6, i32 0, i32 6
  %8 = getelementptr inbounds nuw %struct.OutputPluginCallbacks, ptr %7, i32 0, i32 6
  %9 = load ptr, ptr %8, align 8
  %10 = icmp eq ptr %9, null
  br i1 %10, label %11, label %12

11:                                               ; preds = %2
  store i1 false, ptr %3, align 1
  br label %16

12:                                               ; preds = %2
  %13 = load ptr, ptr %4, align 8
  %14 = load i16, ptr %5, align 2
  %15 = call zeroext i1 @filter_by_origin_cb_wrapper(ptr noundef %13, i16 noundef zeroext %14)
  store i1 %15, ptr %3, align 1
  br label %16

16:                                               ; preds = %12, %11
  %17 = load i1, ptr %3, align 1
  ret i1 %17
}

; Function Attrs: nounwind uwtable
define internal void @DecodeTruncate(ptr noundef %0, ptr noundef %1) #0 {
  %3 = alloca ptr, align 8
  %4 = alloca ptr, align 8
  %5 = alloca ptr, align 8
  %6 = alloca ptr, align 8
  %7 = alloca ptr, align 8
  %8 = alloca i32, align 4
  store ptr %0, ptr %3, align 8
  store ptr %1, ptr %4, align 8
  call void @llvm.lifetime.start.p0(i64 8, ptr %5) #8
  %9 = load ptr, ptr %4, align 8
  %10 = getelementptr inbounds nuw %struct.XLogRecordBuffer, ptr %9, i32 0, i32 2
  %11 = load ptr, ptr %10, align 8
  store ptr %11, ptr %5, align 8
  call void @llvm.lifetime.start.p0(i64 8, ptr %6) #8
  call void @llvm.lifetime.start.p0(i64 8, ptr %7) #8
  %12 = load ptr, ptr %5, align 8
  %13 = getelementptr inbounds nuw %struct.XLogReaderState, ptr %12, i32 0, i32 11
  %14 = load ptr, ptr %13, align 8
  %15 = getelementptr inbounds nuw %struct.DecodedXLogRecord, ptr %14, i32 0, i32 8
  %16 = load ptr, ptr %15, align 8
  store ptr %16, ptr %6, align 8
  %17 = load ptr, ptr %6, align 8
  %18 = getelementptr inbounds nuw %struct.xl_heap_truncate, ptr %17, i32 0, i32 0
  %19 = load i32, ptr %18, align 4
  %20 = load ptr, ptr %3, align 8
  %21 = getelementptr inbounds nuw %struct.LogicalDecodingContext, ptr %20, i32 0, i32 1
  %22 = load ptr, ptr %21, align 8
  %23 = getelementptr inbounds nuw %struct.ReplicationSlot, ptr %22, i32 0, i32 7
  %24 = getelementptr inbounds nuw %struct.ReplicationSlotPersistentData, ptr %23, i32 0, i32 1
  %25 = load i32, ptr %24, align 8
  %26 = icmp ne i32 %19, %25
  br i1 %26, label %27, label %28

27:                                               ; preds = %2
  store i32 1, ptr %8, align 4
  br label %115

28:                                               ; preds = %2
  %29 = load ptr, ptr %3, align 8
  %30 = load ptr, ptr %5, align 8
  %31 = getelementptr inbounds nuw %struct.XLogReaderState, ptr %30, i32 0, i32 11
  %32 = load ptr, ptr %31, align 8
  %33 = getelementptr inbounds nuw %struct.DecodedXLogRecord, ptr %32, i32 0, i32 6
  %34 = load i16, ptr %33, align 8
  %35 = call zeroext i1 @FilterByOrigin(ptr noundef %29, i16 noundef zeroext %34)
  br i1 %35, label %36, label %37

36:                                               ; preds = %28
  store i32 1, ptr %8, align 4
  br label %115

37:                                               ; preds = %28
  %38 = load ptr, ptr %3, align 8
  %39 = getelementptr inbounds nuw %struct.LogicalDecodingContext, ptr %38, i32 0, i32 3
  %40 = load ptr, ptr %39, align 8
  %41 = call ptr @ReorderBufferGetChange(ptr noundef %40)
  store ptr %41, ptr %7, align 8
  %42 = load ptr, ptr %7, align 8
  %43 = getelementptr inbounds nuw %struct.ReorderBufferChange, ptr %42, i32 0, i32 1
  store i32 11, ptr %43, align 8
  %44 = load ptr, ptr %5, align 8
  %45 = getelementptr inbounds nuw %struct.XLogReaderState, ptr %44, i32 0, i32 11
  %46 = load ptr, ptr %45, align 8
  %47 = getelementptr inbounds nuw %struct.DecodedXLogRecord, ptr %46, i32 0, i32 6
  %48 = load i16, ptr %47, align 8
  %49 = load ptr, ptr %7, align 8
  %50 = getelementptr inbounds nuw %struct.ReorderBufferChange, ptr %49, i32 0, i32 3
  store i16 %48, ptr %50, align 8
  %51 = load ptr, ptr %6, align 8
  %52 = getelementptr inbounds nuw %struct.xl_heap_truncate, ptr %51, i32 0, i32 2
  %53 = load i8, ptr %52, align 4
  %54 = zext i8 %53 to i32
  %55 = and i32 %54, 1
  %56 = icmp ne i32 %55, 0
  br i1 %56, label %57, label %61

57:                                               ; preds = %37
  %58 = load ptr, ptr %7, align 8
  %59 = getelementptr inbounds nuw %struct.ReorderBufferChange, ptr %58, i32 0, i32 4
  %60 = getelementptr inbounds nuw %struct.anon.0, ptr %59, i32 0, i32 1
  store i8 1, ptr %60, align 8
  br label %61

61:                                               ; preds = %57, %37
  %62 = load ptr, ptr %6, align 8
  %63 = getelementptr inbounds nuw %struct.xl_heap_truncate, ptr %62, i32 0, i32 2
  %64 = load i8, ptr %63, align 4
  %65 = zext i8 %64 to i32
  %66 = and i32 %65, 2
  %67 = icmp ne i32 %66, 0
  br i1 %67, label %68, label %72

68:                                               ; preds = %61
  %69 = load ptr, ptr %7, align 8
  %70 = getelementptr inbounds nuw %struct.ReorderBufferChange, ptr %69, i32 0, i32 4
  %71 = getelementptr inbounds nuw %struct.anon.0, ptr %70, i32 0, i32 2
  store i8 1, ptr %71, align 1
  br label %72

72:                                               ; preds = %68, %61
  %73 = load ptr, ptr %6, align 8
  %74 = getelementptr inbounds nuw %struct.xl_heap_truncate, ptr %73, i32 0, i32 1
  %75 = load i32, ptr %74, align 4
  %76 = zext i32 %75 to i64
  %77 = load ptr, ptr %7, align 8
  %78 = getelementptr inbounds nuw %struct.ReorderBufferChange, ptr %77, i32 0, i32 4
  %79 = getelementptr inbounds nuw %struct.anon.0, ptr %78, i32 0, i32 0
  store i64 %76, ptr %79, align 8
  %80 = load ptr, ptr %3, align 8
  %81 = getelementptr inbounds nuw %struct.LogicalDecodingContext, ptr %80, i32 0, i32 3
  %82 = load ptr, ptr %81, align 8
  %83 = load ptr, ptr %6, align 8
  %84 = getelementptr inbounds nuw %struct.xl_heap_truncate, ptr %83, i32 0, i32 1
  %85 = load i32, ptr %84, align 4
  %86 = call ptr @ReorderBufferGetRelids(ptr noundef %82, i32 noundef %85)
  %87 = load ptr, ptr %7, align 8
  %88 = getelementptr inbounds nuw %struct.ReorderBufferChange, ptr %87, i32 0, i32 4
  %89 = getelementptr inbounds nuw %struct.anon.0, ptr %88, i32 0, i32 3
  store ptr %86, ptr %89, align 8
  %90 = load ptr, ptr %7, align 8
  %91 = getelementptr inbounds nuw %struct.ReorderBufferChange, ptr %90, i32 0, i32 4
  %92 = getelementptr inbounds nuw %struct.anon.0, ptr %91, i32 0, i32 3
  %93 = load ptr, ptr %92, align 8
  %94 = load ptr, ptr %6, align 8
  %95 = getelementptr inbounds nuw %struct.xl_heap_truncate, ptr %94, i32 0, i32 3
  %96 = getelementptr inbounds [0 x i32], ptr %95, i64 0, i64 0
  %97 = load ptr, ptr %6, align 8
  %98 = getelementptr inbounds nuw %struct.xl_heap_truncate, ptr %97, i32 0, i32 1
  %99 = load i32, ptr %98, align 4
  %100 = zext i32 %99 to i64
  %101 = mul i64 %100, 4
  call void @llvm.memcpy.p0.p0.i64(ptr align 4 %93, ptr align 4 %96, i64 %101, i1 false)
  %102 = load ptr, ptr %3, align 8
  %103 = getelementptr inbounds nuw %struct.LogicalDecodingContext, ptr %102, i32 0, i32 3
  %104 = load ptr, ptr %103, align 8
  %105 = load ptr, ptr %5, align 8
  %106 = getelementptr inbounds nuw %struct.XLogReaderState, ptr %105, i32 0, i32 11
  %107 = load ptr, ptr %106, align 8
  %108 = getelementptr inbounds nuw %struct.DecodedXLogRecord, ptr %107, i32 0, i32 5
  %109 = getelementptr inbounds nuw %struct.XLogRecord, ptr %108, i32 0, i32 1
  %110 = load i32, ptr %109, align 4
  %111 = load ptr, ptr %4, align 8
  %112 = getelementptr inbounds nuw %struct.XLogRecordBuffer, ptr %111, i32 0, i32 0
  %113 = load i64, ptr %112, align 8
  %114 = load ptr, ptr %7, align 8
  call void @ReorderBufferQueueChange(ptr noundef %104, i32 noundef %110, i64 noundef %113, ptr noundef %114, i1 noundef zeroext false)
  store i32 0, ptr %8, align 4
  br label %115

115:                                              ; preds = %72, %36, %27
  call void @llvm.lifetime.end.p0(i64 8, ptr %7) #8
  call void @llvm.lifetime.end.p0(i64 8, ptr %6) #8
  call void @llvm.lifetime.end.p0(i64 8, ptr %5) #8
  %116 = load i32, ptr %8, align 4
  switch i32 %116, label %118 [
    i32 0, label %117
    i32 1, label %117
  ]

117:                                              ; preds = %115, %115
  ret void

118:                                              ; preds = %115
  unreachable
}