; Function Attrs: nounwind uwtable
define internal fastcc void @DecodeTruncate(ptr noundef %0, ptr noundef readonly captures(none) %1) unnamed_addr #0 {
  %3 = getelementptr inbounds nuw i8, ptr %1, i64 16
  %4 = load ptr, ptr %3, align 8
  %5 = getelementptr inbounds nuw i8, ptr %4, i64 104
  %6 = load ptr, ptr %5, align 8
  %7 = getelementptr inbounds nuw i8, ptr %6, i64 72
  %8 = load ptr, ptr %7, align 8
  %9 = load i32, ptr %8, align 4
  %10 = getelementptr inbounds nuw i8, ptr %0, i64 8
  %11 = load ptr, ptr %10, align 8
  %12 = getelementptr inbounds nuw i8, ptr %11, i64 88
  %13 = load i32, ptr %12, align 8
  %.not = icmp eq i32 %9, %13
  br i1 %.not, label %14, label %57

14:                                               ; preds = %2
  %15 = getelementptr inbounds nuw i8, ptr %0, i64 96
  %16 = load ptr, ptr %15, align 8
  %17 = icmp eq ptr %16, null
  br i1 %17, label %FilterByOrigin.exit.thread, label %FilterByOrigin.exit

FilterByOrigin.exit:                              ; preds = %14
  %18 = getelementptr inbounds nuw i8, ptr %6, i64 64
  %19 = load i16, ptr %18, align 8
  %20 = tail call zeroext i1 @filter_by_origin_cb_wrapper(ptr noundef nonnull %0, i16 noundef zeroext %19) #7
  br i1 %20, label %57, label %FilterByOrigin.exit.thread

FilterByOrigin.exit.thread:                       ; preds = %14, %FilterByOrigin.exit
  %21 = getelementptr inbounds nuw i8, ptr %0, i64 24
  %22 = load ptr, ptr %21, align 8
  %23 = tail call ptr @ReorderBufferGetChange(ptr noundef %22) #7
  %24 = getelementptr inbounds nuw i8, ptr %23, i64 8
  store i32 11, ptr %24, align 8
  %25 = load ptr, ptr %5, align 8
  %26 = getelementptr inbounds nuw i8, ptr %25, i64 64
  %27 = load i16, ptr %26, align 8
  %28 = getelementptr inbounds nuw i8, ptr %23, i64 24
  store i16 %27, ptr %28, align 8
  %29 = getelementptr inbounds nuw i8, ptr %8, i64 8
  %30 = load i8, ptr %29, align 4
  %31 = and i8 %30, 1
  %.not26 = icmp eq i8 %31, 0
  br i1 %.not26, label %34, label %32

32:                                               ; preds = %FilterByOrigin.exit.thread
  %33 = getelementptr inbounds nuw i8, ptr %23, i64 40
  store i8 1, ptr %33, align 8
  %.pre = load i8, ptr %29, align 4
  br label %34

34:                                               ; preds = %32, %FilterByOrigin.exit.thread
  %35 = phi i8 [ %.pre, %32 ], [ %30, %FilterByOrigin.exit.thread ]
  %36 = and i8 %35, 2
  %.not27 = icmp eq i8 %36, 0
  br i1 %.not27, label %39, label %37

37:                                               ; preds = %34
  %38 = getelementptr inbounds nuw i8, ptr %23, i64 41
  store i8 1, ptr %38, align 1
  br label %39

39:                                               ; preds = %37, %34
  %40 = getelementptr inbounds nuw i8, ptr %8, i64 4
  %41 = load i32, ptr %40, align 4
  %42 = zext i32 %41 to i64
  %43 = getelementptr inbounds nuw i8, ptr %23, i64 32
  store i64 %42, ptr %43, align 8
  %44 = load ptr, ptr %21, align 8
  %45 = load i32, ptr %40, align 4
  %46 = tail call ptr @ReorderBufferGetRelids(ptr noundef %44, i32 noundef %45) #7
  %47 = getelementptr inbounds nuw i8, ptr %23, i64 48
  store ptr %46, ptr %47, align 8
  %48 = getelementptr inbounds nuw i8, ptr %8, i64 12
  %49 = load i32, ptr %40, align 4
  %50 = zext i32 %49 to i64
  %51 = shl nuw nsw i64 %50, 2
  tail call void @llvm.memcpy.p0.p0.i64(ptr align 4 %46, ptr nonnull align 4 %48, i64 %51, i1 false)
  %52 = load ptr, ptr %21, align 8
  %53 = load ptr, ptr %5, align 8
  %54 = getelementptr inbounds nuw i8, ptr %53, i64 44
  %55 = load i32, ptr %54, align 4
  %56 = load i64, ptr %1, align 8
  tail call void @ReorderBufferQueueChange(ptr noundef %52, i32 noundef %55, i64 noundef %56, ptr noundef nonnull %23, i1 noundef zeroext false) #7
  br label %57

57:                                               ; preds = %FilterByOrigin.exit, %2, %39
  ret void
}